; Function Attrs: mustprogress nounwind uwtable
define internal fastcc ptr @"_ZZN4node10contextify16ContextifyScript11EvalMachineEN2v85LocalINS2_7ContextEEEPNS_11EnvironmentElbbbPNS2_14MicrotaskQueueERKNS2_20FunctionCallbackInfoINS2_5ValueEEEENK3$_0clEv"(ptr nocapture noundef nonnull readonly align 8 dereferenceable(32) %this) unnamed_addr #3 align 2 {
entry:
  %0 = load ptr, ptr %this, align 8
  %1 = load ptr, ptr %0, align 8
  %2 = getelementptr inbounds i8, ptr %this, i64 8
  %3 = load ptr, ptr %2, align 8
  %agg.tmp.sroa.0.0.copyload = load ptr, ptr %3, align 8
  %call4 = tail call ptr @_ZN2v86Script3RunENS_5LocalINS_7ContextEEE(ptr noundef nonnull align 1 dereferenceable(1) %1, ptr %agg.tmp.sroa.0.0.copyload) #21
  %cmp.i.i = icmp eq ptr %call4, null
  br i1 %cmp.i.i, label %if.end, label %land.lhs.true

land.lhs.true:                                    ; preds = %entry
  %4 = getelementptr inbounds i8, ptr %this, i64 16
  %5 = load ptr, ptr %4, align 8
  %6 = load ptr, ptr %5, align 8
  %cmp.not = icmp eq ptr %6, null
  br i1 %cmp.not, label %if.end, label %if.then

if.then:                                          ; preds = %land.lhs.true
  %7 = getelementptr inbounds i8, ptr %this, i64 24
  %8 = load ptr, ptr %7, align 8
  %9 = load ptr, ptr %8, align 8
  %isolate_.i = getelementptr inbounds i8, ptr %9, i64 88
  %10 = load ptr, ptr %isolate_.i, align 8
  %vtable = load ptr, ptr %6, align 8
  %vfn = getelementptr inbounds i8, ptr %vtable, i64 48
  %11 = load ptr, ptr %vfn, align 8
  tail call void %11(ptr noundef nonnull align 8 dereferenceable(8) %6, ptr noundef %10) #21
  br label %if.end

if.end:                                           ; preds = %if.then, %land.lhs.true, %entry
  ret ptr %call4
}